target datalayout = "e-m:e-p270:32:32-p271:32:32-p272:64:64-i64:64-i128:128-f80:128-n8:16:32:64-S128"
target triple = "x86_64-pc-linux-gnu"

@hf_gtpv2_spare_bits = internal global i32 0, align 4
@hf_gtpv2_pdn_numbers_nsapi = internal global i32 0, align 4
@hf_gtpv2_nsapi08 = internal global i32 0, align 4
@hf_gtpv2_dl_gtp_u_sequence_number = internal global i32 0, align 4
@hf_gtpv2_ul_gtp_u_sequence_number = internal global i32 0, align 4
@hf_gtpv2_send_n_pdu_number = internal global i32 0, align 4
@hf_gtpv2_receive_n_pdu_number = internal global i32 0, align 4
@ett_gtpv2_pdn_numbers_nsapi = internal global i32 0, align 4
@.str.1817 = private unnamed_addr constant [10 x i8] c"NSAPI: %u\00", align 1

; Function Attrs: null_pointer_is_valid sspstrong uwtable
define internal void @dissect_gtpv2_pdn_numbers(ptr noundef %0, ptr noundef %1, ptr noundef %2, ptr noundef %3, i16 noundef zeroext %4, i8 noundef zeroext %5, i8 noundef zeroext %6, ptr noundef %7) #1 {
  %9 = alloca ptr, align 8
  %10 = alloca ptr, align 8
  %11 = alloca ptr, align 8
  %12 = alloca ptr, align 8
  %13 = alloca i16, align 2
  %14 = alloca i8, align 1
  %15 = alloca i8, align 1
  %16 = alloca ptr, align 8
  %17 = alloca ptr, align 8
  %18 = alloca ptr, align 8
  %19 = alloca i8, align 1
  %20 = alloca i32, align 4
  store ptr %0, ptr %9, align 8
  store ptr %1, ptr %10, align 8
  store ptr %2, ptr %11, align 8
  store ptr %3, ptr %12, align 8
  store i16 %4, ptr %13, align 2
  store i8 %5, ptr %14, align 1
  store i8 %6, ptr %15, align 1
  store ptr %7, ptr %16, align 8
  call void @llvm.lifetime.start.p0(i64 8, ptr %17) #11
  call void @llvm.lifetime.start.p0(i64 8, ptr %18) #11
  call void @llvm.lifetime.start.p0(i64 1, ptr %19) #11
  call void @llvm.lifetime.start.p0(i64 4, ptr %20) #11
  store i32 0, ptr %20, align 4
  %21 = load ptr, ptr %9, align 8
  %22 = load i32, ptr %20, align 4
  %23 = call zeroext i8 @tvb_get_uint8(ptr noundef %21, i32 noundef %22)
  %24 = zext i8 %23 to i32
  %25 = and i32 %24, 8
  %26 = trunc i32 %25 to i8
  store i8 %26, ptr %19, align 1
  %27 = load ptr, ptr %11, align 8
  %28 = load i32, ptr @hf_gtpv2_nsapi08, align 4
  %29 = load ptr, ptr %9, align 8
  %30 = load i32, ptr %20, align 4
  %31 = call ptr @proto_tree_add_item(ptr noundef %27, i32 noundef %28, ptr noundef %29, i32 noundef %30, i32 noundef 1, i32 noundef 0)
  store ptr %31, ptr %17, align 8
  %32 = load ptr, ptr %17, align 8
  %33 = load i32, ptr @ett_gtpv2_pdn_numbers_nsapi, align 4
  %34 = call ptr @proto_item_add_subtree(ptr noundef %32, i32 noundef %33)
  store ptr %34, ptr %18, align 8
  %35 = load ptr, ptr %18, align 8
  %36 = load i32, ptr @hf_gtpv2_spare_bits, align 4
  %37 = load ptr, ptr %9, align 8
  %38 = load i32, ptr %20, align 4
  %39 = shl i32 %38, 3
  %40 = call ptr @proto_tree_add_bits_item(ptr noundef %35, i32 noundef %36, ptr noundef %37, i32 noundef %39, i32 noundef 4, i32 noundef 0)
  %41 = load ptr, ptr %18, align 8
  %42 = load i32, ptr @hf_gtpv2_pdn_numbers_nsapi, align 4
  %43 = load ptr, ptr %9, align 8
  %44 = load i32, ptr %20, align 4
  %45 = call ptr @proto_tree_add_item(ptr noundef %41, i32 noundef %42, ptr noundef %43, i32 noundef %44, i32 noundef 1, i32 noundef 0)
  %46 = load ptr, ptr %12, align 8
  %47 = load i8, ptr %19, align 1
  %48 = zext i8 %47 to i32
  call void (ptr, ptr, ...) @proto_item_append_text(ptr noundef %46, ptr noundef @.str.1817, i32 noundef %48)
  %49 = load i32, ptr %20, align 4
  %50 = add i32 %49, 1
  store i32 %50, ptr %20, align 4
  %51 = load ptr, ptr %11, align 8
  %52 = load i32, ptr @hf_gtpv2_dl_gtp_u_sequence_number, align 4
  %53 = load ptr, ptr %9, align 8
  %54 = load i32, ptr %20, align 4
  %55 = call ptr @proto_tree_add_item(ptr noundef %51, i32 noundef %52, ptr noundef %53, i32 noundef %54, i32 noundef 2, i32 noundef 0)
  %56 = load i32, ptr %20, align 4
  %57 = add i32 %56, 2
  store i32 %57, ptr %20, align 4
  %58 = load ptr, ptr %11, align 8
  %59 = load i32, ptr @hf_gtpv2_ul_gtp_u_sequence_number, align 4
  %60 = load ptr, ptr %9, align 8
  %61 = load i32, ptr %20, align 4
  %62 = call ptr @proto_tree_add_item(ptr noundef %58, i32 noundef %59, ptr noundef %60, i32 noundef %61, i32 noundef 2, i32 noundef 0)
  %63 = load i32, ptr %20, align 4
  %64 = add i32 %63, 2
  store i32 %64, ptr %20, align 4
  %65 = load ptr, ptr %11, align 8
  %66 = load i32, ptr @hf_gtpv2_send_n_pdu_number, align 4
  %67 = load ptr, ptr %9, align 8
  %68 = load i32, ptr %20, align 4
  %69 = call ptr @proto_tree_add_item(ptr noundef %65, i32 noundef %66, ptr noundef %67, i32 noundef %68, i32 noundef 2, i32 noundef 0)
  %70 = load i32, ptr %20, align 4
  %71 = add i32 %70, 2
  store i32 %71, ptr %20, align 4
  %72 = load ptr, ptr %11, align 8
  %73 = load i32, ptr @hf_gtpv2_receive_n_pdu_number, align 4
  %74 = load ptr, ptr %9, align 8
  %75 = load i32, ptr %20, align 4
  %76 = call ptr @proto_tree_add_item(ptr noundef %72, i32 noundef %73, ptr noundef %74, i32 noundef %75, i32 noundef 2, i32 noundef 0)
  call void @llvm.lifetime.end.p0(i64 4, ptr %20) #11
  call void @llvm.lifetime.end.p0(i64 1, ptr %19) #11
  call void @llvm.lifetime.end.p0(i64 8, ptr %18) #11
  call void @llvm.lifetime.end.p0(i64 8, ptr %17) #11
  ret void
}