; Function Attrs: null_pointer_is_valid sspstrong uwtable
define internal void @dissect_gtpv2_pdn_numbers(ptr noundef %0, ptr readnone captures(none) %1, ptr noundef %2, ptr noundef %3, i16 zeroext %4, i8 zeroext %5, i8 zeroext %6, ptr readnone captures(none) %7) #1 {
  %9 = tail call zeroext i8 @tvb_get_uint8(ptr noundef %0, i32 noundef 0)
  %10 = and i8 %9, 8
  %11 = load i32, ptr @hf_gtpv2_nsapi08, align 4
  %12 = tail call ptr @proto_tree_add_item(ptr noundef %2, i32 noundef %11, ptr noundef %0, i32 noundef 0, i32 noundef 1, i32 noundef 0)
  %13 = load i32, ptr @ett_gtpv2_pdn_numbers_nsapi, align 4
  %14 = tail call ptr @proto_item_add_subtree(ptr noundef %12, i32 noundef %13)
  %15 = load i32, ptr @hf_gtpv2_spare_bits, align 4
  %16 = tail call ptr @proto_tree_add_bits_item(ptr noundef %14, i32 noundef %15, ptr noundef %0, i32 noundef 0, i32 noundef 4, i32 noundef 0)
  %17 = load i32, ptr @hf_gtpv2_pdn_numbers_nsapi, align 4
  %18 = tail call ptr @proto_tree_add_item(ptr noundef %14, i32 noundef %17, ptr noundef %0, i32 noundef 0, i32 noundef 1, i32 noundef 0)
  %19 = zext nneg i8 %10 to i32
  tail call void (ptr, ptr, ...) @proto_item_append_text(ptr noundef %3, ptr noundef nonnull @.str.1817, i32 noundef %19)
  %20 = load i32, ptr @hf_gtpv2_dl_gtp_u_sequence_number, align 4
  %21 = tail call ptr @proto_tree_add_item(ptr noundef %2, i32 noundef %20, ptr noundef %0, i32 noundef 1, i32 noundef 2, i32 noundef 0)
  %22 = load i32, ptr @hf_gtpv2_ul_gtp_u_sequence_number, align 4
  %23 = tail call ptr @proto_tree_add_item(ptr noundef %2, i32 noundef %22, ptr noundef %0, i32 noundef 3, i32 noundef 2, i32 noundef 0)
  %24 = load i32, ptr @hf_gtpv2_send_n_pdu_number, align 4
  %25 = tail call ptr @proto_tree_add_item(ptr noundef %2, i32 noundef %24, ptr noundef %0, i32 noundef 5, i32 noundef 2, i32 noundef 0)
  %26 = load i32, ptr @hf_gtpv2_receive_n_pdu_number, align 4
  %27 = tail call ptr @proto_tree_add_item(ptr noundef %2, i32 noundef %26, ptr noundef %0, i32 noundef 7, i32 noundef 2, i32 noundef 0)
  ret void
}